; Function Attrs: mustprogress nounwind uwtable
define hidden void @_ZN14ShenandoahHeap9cancel_gcEN7GCCause5CauseE(ptr noundef nonnull align 8 dereferenceable(2657) %0, i32 noundef %1) local_unnamed_addr #1 align 2 {
  %3 = alloca %class.FormatBuffer.3, align 8
  %4 = getelementptr inbounds i8, ptr %0, i64 1552
  %5 = tail call noundef i8 asm sideeffect "lock cmpxchgb $1,($3)", "={ax},q,{ax},r,~{cc},~{memory},~{dirflag},~{fpsr},~{flags}"(i8 1, i8 0, ptr nonnull %4) #26, !srcloc !20
  %6 = icmp eq i8 %5, 0
  br i1 %6, label %7, label %16

7:                                                ; preds = %2
  %8 = tail call noundef ptr @_ZN7GCCause9to_stringENS_5CauseE(i32 noundef %1) #26
  call void (ptr, ptr, ...) @_ZN12FormatBufferILm256EEC2EPKcz(ptr noundef nonnull align 8 dereferenceable(264) %3, ptr noundef nonnull @.str.74, ptr noundef %8)
  %9 = load volatile ptr, ptr getelementptr inbounds (i8, ptr @_ZN16LogTagSetMappingILN6LogTag4typeE49ELS1_0ELS1_0ELS1_0ELS1_0ELS1_0EE7_tagsetE, i64 64), align 8
  %.not = icmp eq ptr %9, null
  br i1 %.not, label %12, label %10

10:                                               ; preds = %7
  %11 = load ptr, ptr %3, align 8
  call void (ptr, ...) @_ZN7LogImplILN6LogTag4typeE49ELS1_0ELS1_0ELS1_0ELS1_0ELS1_0EE5writeILN8LogLevel4typeE3EEEvPKcz(ptr noundef nonnull @.str.61, ptr noundef %11)
  br label %12

12:                                               ; preds = %7, %10
  %13 = call align 8 ptr @llvm.threadlocal.address.p0(ptr align 8 @_ZN6Thread12_thr_currentE)
  %14 = load ptr, ptr %13, align 8
  %15 = load ptr, ptr %3, align 8
  call void (ptr, ptr, ...) @_ZN6Events3logEP6ThreadPKcz(ptr noundef %14, ptr noundef nonnull @.str.61, ptr noundef %15)
  br label %16

16:                                               ; preds = %12, %2
  ret void
}